; Function Attrs: mustprogress nofree norecurse nosync nounwind willreturn memory(read, argmem: readwrite, inaccessiblemem: none) uwtable
define internal fastcc range(i32 -1094995529, 1) i32 @decode_registered_user_data_afd(ptr noundef writeonly captures(none) %0, ptr noundef captures(none) %1) unnamed_addr #4 {
  %3 = getelementptr inbounds nuw i8, ptr %1, i64 8
  %4 = load ptr, ptr %3, align 8, !tbaa !4
  %5 = load ptr, ptr %1, align 8, !tbaa !10
  %6 = ptrtoint ptr %4 to i64
  %7 = ptrtoint ptr %5 to i64
  %8 = sub i64 %6, %7
  %9 = trunc i64 %8 to i32
  %10 = icmp slt i32 %9, 1
  br i1 %10, label %25, label %11

11:                                               ; preds = %2
  %12 = getelementptr inbounds nuw i8, ptr %5, i64 1
  store ptr %12, ptr %1, align 8, !tbaa !11
  %13 = load i8, ptr %5, align 1, !tbaa !12
  %14 = and i8 %13, 64
  %.not = icmp eq i8 %14, 0
  br i1 %.not, label %25, label %15

15:                                               ; preds = %11
  %16 = ptrtoint ptr %12 to i64
  %17 = sub i64 %6, %16
  %18 = trunc i64 %17 to i32
  %19 = icmp slt i32 %18, 1
  br i1 %19, label %25, label %20

20:                                               ; preds = %15
  %21 = getelementptr inbounds nuw i8, ptr %5, i64 2
  store ptr %21, ptr %1, align 8, !tbaa !11
  %22 = load i8, ptr %12, align 1, !tbaa !12
  %23 = and i8 %22, 15
  %24 = getelementptr inbounds nuw i8, ptr %0, i64 4
  store i8 %23, ptr %24, align 4, !tbaa !187
  store i32 1, ptr %0, align 4, !tbaa !188
  br label %25

25:                                               ; preds = %11, %20, %15, %2
  %.0 = phi i32 [ -1094995529, %2 ], [ -1094995529, %15 ], [ 0, %20 ], [ 0, %11 ]
  ret i32 %.0
}